target datalayout = "e-m:e-p270:32:32-p271:32:32-p272:64:64-i64:64-i128:128-f80:128-n8:16:32:64-S128"
target triple = "x86_64-pc-linux-gnu"

%struct.RTPDynamicProtocolHandler = type { ptr, i32, i32, i32, i32, i32, ptr, ptr, ptr, ptr, ptr }
%struct.sockaddr_storage = type { i16, [118 x i8], i64 }
%struct.AVFormatContext = type { ptr, ptr, ptr, ptr, ptr, i32, i32, ptr, i32, ptr, i32, ptr, ptr, i64, i64, i64, i32, i32, i32, i64, i64, ptr, i32, i32, ptr, i32, i32, i32, i32, ptr, i64, i32, i32, %struct.AVIOInterruptCB, i32, i32, i32, i32, i64, i32, i32, i32, i32, i32, i32, i32, i32, i32, i32, i32, i32, i64, i32, i32, i32, i32, i32, ptr, ptr, ptr, ptr, i32, ptr, ptr, ptr, ptr, i32, ptr, ptr, i64, ptr, ptr, ptr, i64 }
%struct.AVIOInterruptCB = type { ptr, ptr }
%struct.RTSPState = type { ptr, ptr, i32, ptr, i32, i64, i32, [512 x i8], i32, i64, i32, i32, i32, [64 x i8], [128 x i8], %struct.HTTPAuthState, [2048 x i8], ptr, i32, ptr, ptr, [1024 x i8], ptr, i64, [4096 x i8], ptr, i32, i32, ptr, i32, i32, ptr, i32, i64, ptr, i32, i32, i32, i32, i32, i32, i32, i32, i32, i32, i64, i32, ptr, [4 x i8], i32, i32, ptr }
%struct.HTTPAuthState = type { i32, [200 x i8], %struct.DigestParams, i32 }
%struct.DigestParams = type { [300 x i8], [10 x i8], [30 x i8], [300 x i8], [10 x i8], i32 }
%struct.RTSPStream = type { ptr, ptr, i32, i32, i32, [4096 x i8], i32, %struct.sockaddr_storage, i32, ptr, i32, ptr, i32, i32, ptr, ptr, i32, i32, [40 x i8], [100 x i8] }

; Function Attrs: nounwind uwtable
define void @ff_rtsp_close_streams(ptr noundef %0) #0 {
  %2 = alloca ptr, align 8
  %3 = alloca ptr, align 8
  %4 = alloca i32, align 4
  %5 = alloca i32, align 4
  %6 = alloca ptr, align 8
  store ptr %0, ptr %2, align 8, !tbaa !15
  call void @llvm.lifetime.start.p0(i64 8, ptr %3) #13
  %7 = load ptr, ptr %2, align 8, !tbaa !15
  %8 = getelementptr inbounds nuw %struct.AVFormatContext, ptr %7, i32 0, i32 3
  %9 = load ptr, ptr %8, align 8, !tbaa !33
  store ptr %9, ptr %3, align 8, !tbaa !46
  call void @llvm.lifetime.start.p0(i64 4, ptr %4) #13
  call void @llvm.lifetime.start.p0(i64 4, ptr %5) #13
  call void @llvm.lifetime.start.p0(i64 8, ptr %6) #13
  %10 = load ptr, ptr %2, align 8, !tbaa !15
  call void @ff_rtsp_undo_setup(ptr noundef %10, i32 noundef 0)
  store i32 0, ptr %4, align 4, !tbaa !12
  br label %11

11:                                               ; preds = %97, %1
  %12 = load i32, ptr %4, align 4, !tbaa !12
  %13 = load ptr, ptr %3, align 8, !tbaa !46
  %14 = getelementptr inbounds nuw %struct.RTSPState, ptr %13, i32 0, i32 2
  %15 = load i32, ptr %14, align 8, !tbaa !62
  %16 = icmp slt i32 %12, %15
  br i1 %16, label %17, label %100

17:                                               ; preds = %11
  %18 = load ptr, ptr %3, align 8, !tbaa !46
  %19 = getelementptr inbounds nuw %struct.RTSPState, ptr %18, i32 0, i32 3
  %20 = load ptr, ptr %19, align 8, !tbaa !54
  %21 = load i32, ptr %4, align 4, !tbaa !12
  %22 = sext i32 %21 to i64
  %23 = getelementptr inbounds ptr, ptr %20, i64 %22
  %24 = load ptr, ptr %23, align 8, !tbaa !63
  store ptr %24, ptr %6, align 8, !tbaa !63
  %25 = load ptr, ptr %6, align 8, !tbaa !63
  %26 = icmp ne ptr %25, null
  br i1 %26, label %27, label %96

27:                                               ; preds = %17
  %28 = load ptr, ptr %6, align 8, !tbaa !63
  %29 = getelementptr inbounds nuw %struct.RTSPStream, ptr %28, i32 0, i32 14
  %30 = load ptr, ptr %29, align 8, !tbaa !108
  %31 = icmp ne ptr %30, null
  br i1 %31, label %32, label %57

32:                                               ; preds = %27
  %33 = load ptr, ptr %6, align 8, !tbaa !63
  %34 = getelementptr inbounds nuw %struct.RTSPStream, ptr %33, i32 0, i32 15
  %35 = load ptr, ptr %34, align 8, !tbaa !111
  %36 = icmp ne ptr %35, null
  br i1 %36, label %37, label %57

37:                                               ; preds = %32
  %38 = load ptr, ptr %6, align 8, !tbaa !63
  %39 = getelementptr inbounds nuw %struct.RTSPStream, ptr %38, i32 0, i32 14
  %40 = load ptr, ptr %39, align 8, !tbaa !108
  %41 = getelementptr inbounds nuw %struct.RTPDynamicProtocolHandler, ptr %40, i32 0, i32 8
  %42 = load ptr, ptr %41, align 8, !tbaa !117
  %43 = icmp ne ptr %42, null
  br i1 %43, label %44, label %53

44:                                               ; preds = %37
  %45 = load ptr, ptr %6, align 8, !tbaa !63
  %46 = getelementptr inbounds nuw %struct.RTSPStream, ptr %45, i32 0, i32 14
  %47 = load ptr, ptr %46, align 8, !tbaa !108
  %48 = getelementptr inbounds nuw %struct.RTPDynamicProtocolHandler, ptr %47, i32 0, i32 8
  %49 = load ptr, ptr %48, align 8, !tbaa !117
  %50 = load ptr, ptr %6, align 8, !tbaa !63
  %51 = getelementptr inbounds nuw %struct.RTSPStream, ptr %50, i32 0, i32 15
  %52 = load ptr, ptr %51, align 8, !tbaa !111
  call void %49(ptr noundef %52)
  br label %53

53:                                               ; preds = %44, %37
  %54 = load ptr, ptr %6, align 8, !tbaa !63
  %55 = getelementptr inbounds nuw %struct.RTSPStream, ptr %54, i32 0, i32 15
  %56 = load ptr, ptr %55, align 8, !tbaa !111
  call void @av_free(ptr noundef %56)
  br label %57

57:                                               ; preds = %53, %32, %27
  store i32 0, ptr %5, align 4, !tbaa !12
  br label %58

58:                                               ; preds = %71, %57
  %59 = load i32, ptr %5, align 4, !tbaa !12
  %60 = load ptr, ptr %6, align 8, !tbaa !63
  %61 = getelementptr inbounds nuw %struct.RTSPStream, ptr %60, i32 0, i32 8
  %62 = load i32, ptr %61, align 8, !tbaa !118
  %63 = icmp slt i32 %59, %62
  br i1 %63, label %64, label %74

64:                                               ; preds = %58
  %65 = load ptr, ptr %6, align 8, !tbaa !63
  %66 = getelementptr inbounds nuw %struct.RTSPStream, ptr %65, i32 0, i32 9
  %67 = load ptr, ptr %66, align 8, !tbaa !119
  %68 = load i32, ptr %5, align 4, !tbaa !12
  %69 = sext i32 %68 to i64
  %70 = getelementptr inbounds ptr, ptr %67, i64 %69
  call void @av_freep(ptr noundef %70)
  br label %71

71:                                               ; preds = %64
  %72 = load i32, ptr %5, align 4, !tbaa !12
  %73 = add nsw i32 %72, 1
  store i32 %73, ptr %5, align 4, !tbaa !12
  br label %58, !llvm.loop !120

74:                                               ; preds = %58
  %75 = load ptr, ptr %6, align 8, !tbaa !63
  %76 = getelementptr inbounds nuw %struct.RTSPStream, ptr %75, i32 0, i32 9
  call void @av_freep(ptr noundef %76)
  store i32 0, ptr %5, align 4, !tbaa !12
  br label %77

77:                                               ; preds = %90, %74
  %78 = load i32, ptr %5, align 4, !tbaa !12
  %79 = load ptr, ptr %6, align 8, !tbaa !63
  %80 = getelementptr inbounds nuw %struct.RTSPStream, ptr %79, i32 0, i32 10
  %81 = load i32, ptr %80, align 8, !tbaa !121
  %82 = icmp slt i32 %78, %81
  br i1 %82, label %83, label %93

83:                                               ; preds = %77
  %84 = load ptr, ptr %6, align 8, !tbaa !63
  %85 = getelementptr inbounds nuw %struct.RTSPStream, ptr %84, i32 0, i32 11
  %86 = load ptr, ptr %85, align 8, !tbaa !122
  %87 = load i32, ptr %5, align 4, !tbaa !12
  %88 = sext i32 %87 to i64
  %89 = getelementptr inbounds ptr, ptr %86, i64 %88
  call void @av_freep(ptr noundef %89)
  br label %90

90:                                               ; preds = %83
  %91 = load i32, ptr %5, align 4, !tbaa !12
  %92 = add nsw i32 %91, 1
  store i32 %92, ptr %5, align 4, !tbaa !12
  br label %77, !llvm.loop !123

93:                                               ; preds = %77
  %94 = load ptr, ptr %6, align 8, !tbaa !63
  %95 = getelementptr inbounds nuw %struct.RTSPStream, ptr %94, i32 0, i32 11
  call void @av_freep(ptr noundef %95)
  call void @av_freep(ptr noundef %6)
  br label %96

96:                                               ; preds = %93, %17
  br label %97

97:                                               ; preds = %96
  %98 = load i32, ptr %4, align 4, !tbaa !12
  %99 = add nsw i32 %98, 1
  store i32 %99, ptr %4, align 4, !tbaa !12
  br label %11, !llvm.loop !124

100:                                              ; preds = %11
  %101 = load ptr, ptr %3, align 8, !tbaa !46
  %102 = getelementptr inbounds nuw %struct.RTSPState, ptr %101, i32 0, i32 3
  call void @av_freep(ptr noundef %102)
  %103 = load ptr, ptr %3, align 8, !tbaa !46
  %104 = getelementptr inbounds nuw %struct.RTSPState, ptr %103, i32 0, i32 22
  %105 = load ptr, ptr %104, align 8, !tbaa !125
  %106 = icmp ne ptr %105, null
  br i1 %106, label %107, label %110

107:                                              ; preds = %100
  %108 = load ptr, ptr %3, align 8, !tbaa !46
  %109 = getelementptr inbounds nuw %struct.RTSPState, ptr %108, i32 0, i32 22
  call void @avformat_close_input(ptr noundef %109)
  br label %110

110:                                              ; preds = %107, %100
  %111 = load ptr, ptr %3, align 8, !tbaa !46
  %112 = getelementptr inbounds nuw %struct.RTSPState, ptr %111, i32 0, i32 25
  %113 = load ptr, ptr %112, align 8, !tbaa !81
  %114 = icmp ne ptr %113, null
  br i1 %114, label %115, label %119

115:                                              ; preds = %110
  %116 = load ptr, ptr %3, align 8, !tbaa !46
  %117 = getelementptr inbounds nuw %struct.RTSPState, ptr %116, i32 0, i32 25
  %118 = load ptr, ptr %117, align 8, !tbaa !81
  call void @avpriv_mpegts_parse_close(ptr noundef %118)
  br label %119

119:                                              ; preds = %115, %110
  %120 = load ptr, ptr %3, align 8, !tbaa !46
  %121 = getelementptr inbounds nuw %struct.RTSPState, ptr %120, i32 0, i32 34
  call void @av_freep(ptr noundef %121)
  %122 = load ptr, ptr %3, align 8, !tbaa !46
  %123 = getelementptr inbounds nuw %struct.RTSPState, ptr %122, i32 0, i32 31
  call void @av_freep(ptr noundef %123)
  call void @llvm.lifetime.end.p0(i64 8, ptr %6) #13
  call void @llvm.lifetime.end.p0(i64 4, ptr %5) #13
  call void @llvm.lifetime.end.p0(i64 4, ptr %4) #13
  call void @llvm.lifetime.end.p0(i64 8, ptr %3) #13
  ret void
}