; Function Attrs: nounwind uwtable
define void @ff_rtsp_close_streams(ptr noundef %0) local_unnamed_addr #2 {
  %2 = alloca ptr, align 8
  %3 = getelementptr inbounds nuw i8, ptr %0, i64 24
  %4 = load ptr, ptr %3, align 8, !tbaa !20
  call void @llvm.lifetime.start.p0(i64 8, ptr nonnull %2) #15
  tail call void @ff_rtsp_undo_setup(ptr noundef %0, i32 noundef 0)
  %5 = getelementptr inbounds nuw i8, ptr %4, i64 16
  %6 = load i32, ptr %5, align 8, !tbaa !56
  %7 = icmp sgt i32 %6, 0
  br i1 %7, label %.lr.ph39, label %._crit_edge40

.lr.ph39:                                         ; preds = %1
  %8 = getelementptr inbounds nuw i8, ptr %4, i64 24
  br label %9

9:                                                ; preds = %.lr.ph39, %55
  %10 = phi i32 [ %6, %.lr.ph39 ], [ %56, %55 ]
  %indvars.iv47 = phi i64 [ 0, %.lr.ph39 ], [ %indvars.iv.next48, %55 ]
  %11 = load ptr, ptr %8, align 8, !tbaa !47
  %12 = getelementptr inbounds nuw ptr, ptr %11, i64 %indvars.iv47
  %13 = load ptr, ptr %12, align 8, !tbaa !57
  store ptr %13, ptr %2, align 8, !tbaa !57
  %.not26 = icmp eq ptr %13, null
  br i1 %.not26, label %55, label %14

14:                                               ; preds = %9
  %15 = getelementptr inbounds nuw i8, ptr %13, i64 4296
  %16 = load ptr, ptr %15, align 8, !tbaa !79
  %.not27 = icmp eq ptr %16, null
  br i1 %.not27, label %26, label %17

17:                                               ; preds = %14
  %18 = getelementptr inbounds nuw i8, ptr %13, i64 4304
  %19 = load ptr, ptr %18, align 8, !tbaa !82
  %.not28 = icmp eq ptr %19, null
  br i1 %.not28, label %26, label %20

20:                                               ; preds = %17
  %21 = getelementptr inbounds nuw i8, ptr %16, i64 48
  %22 = load ptr, ptr %21, align 8, !tbaa !84
  %.not29 = icmp eq ptr %22, null
  br i1 %.not29, label %24, label %23

23:                                               ; preds = %20
  call void %22(ptr noundef nonnull %19) #15
  %.pre = load ptr, ptr %2, align 8, !tbaa !57
  %.phi.trans.insert = getelementptr inbounds nuw i8, ptr %.pre, i64 4304
  %.pre50 = load ptr, ptr %.phi.trans.insert, align 8, !tbaa !82
  br label %24

24:                                               ; preds = %23, %20
  %25 = phi ptr [ %.pre50, %23 ], [ %19, %20 ]
  call void @av_free(ptr noundef %25) #15
  %.pre51 = load ptr, ptr %2, align 8, !tbaa !57
  br label %26

26:                                               ; preds = %24, %17, %14
  %27 = phi ptr [ %.pre51, %24 ], [ %13, %17 ], [ %13, %14 ]
  %28 = getelementptr inbounds nuw i8, ptr %27, i64 4256
  %29 = load i32, ptr %28, align 8, !tbaa !138
  %30 = icmp sgt i32 %29, 0
  br i1 %30, label %.lr.ph, label %._crit_edge

.lr.ph:                                           ; preds = %26, %.lr.ph
  %indvars.iv = phi i64 [ %indvars.iv.next, %.lr.ph ], [ 0, %26 ]
  %31 = phi ptr [ %35, %.lr.ph ], [ %27, %26 ]
  %32 = getelementptr inbounds nuw i8, ptr %31, i64 4264
  %33 = load ptr, ptr %32, align 8, !tbaa !139
  %34 = getelementptr inbounds nuw ptr, ptr %33, i64 %indvars.iv
  call void @av_freep(ptr noundef %34) #15
  %indvars.iv.next = add nuw nsw i64 %indvars.iv, 1
  %35 = load ptr, ptr %2, align 8, !tbaa !57
  %36 = getelementptr inbounds nuw i8, ptr %35, i64 4256
  %37 = load i32, ptr %36, align 8, !tbaa !138
  %38 = sext i32 %37 to i64
  %39 = icmp slt i64 %indvars.iv.next, %38
  br i1 %39, label %.lr.ph, label %._crit_edge, !llvm.loop !140

._crit_edge:                                      ; preds = %.lr.ph, %26
  %.lcssa = phi ptr [ %27, %26 ], [ %35, %.lr.ph ]
  %40 = getelementptr inbounds nuw i8, ptr %.lcssa, i64 4264
  call void @av_freep(ptr noundef nonnull %40) #15
  %41 = load ptr, ptr %2, align 8, !tbaa !57
  %42 = getelementptr inbounds nuw i8, ptr %41, i64 4272
  %43 = load i32, ptr %42, align 8, !tbaa !141
  %44 = icmp sgt i32 %43, 0
  br i1 %44, label %.lr.ph34, label %._crit_edge35

.lr.ph34:                                         ; preds = %._crit_edge, %.lr.ph34
  %indvars.iv44 = phi i64 [ %indvars.iv.next45, %.lr.ph34 ], [ 0, %._crit_edge ]
  %45 = phi ptr [ %49, %.lr.ph34 ], [ %41, %._crit_edge ]
  %46 = getelementptr inbounds nuw i8, ptr %45, i64 4280
  %47 = load ptr, ptr %46, align 8, !tbaa !142
  %48 = getelementptr inbounds nuw ptr, ptr %47, i64 %indvars.iv44
  call void @av_freep(ptr noundef %48) #15
  %indvars.iv.next45 = add nuw nsw i64 %indvars.iv44, 1
  %49 = load ptr, ptr %2, align 8, !tbaa !57
  %50 = getelementptr inbounds nuw i8, ptr %49, i64 4272
  %51 = load i32, ptr %50, align 8, !tbaa !141
  %52 = sext i32 %51 to i64
  %53 = icmp slt i64 %indvars.iv.next45, %52
  br i1 %53, label %.lr.ph34, label %._crit_edge35, !llvm.loop !143

._crit_edge35:                                    ; preds = %.lr.ph34, %._crit_edge
  %.lcssa30 = phi ptr [ %41, %._crit_edge ], [ %49, %.lr.ph34 ]
  %54 = getelementptr inbounds nuw i8, ptr %.lcssa30, i64 4280
  call void @av_freep(ptr noundef nonnull %54) #15
  call void @av_freep(ptr noundef nonnull %2) #15
  %.pre52 = load i32, ptr %5, align 8, !tbaa !56
  br label %55

55:                                               ; preds = %9, %._crit_edge35
  %56 = phi i32 [ %10, %9 ], [ %.pre52, %._crit_edge35 ]
  %indvars.iv.next48 = add nuw nsw i64 %indvars.iv47, 1
  %57 = sext i32 %56 to i64
  %58 = icmp slt i64 %indvars.iv.next48, %57
  br i1 %58, label %9, label %._crit_edge40, !llvm.loop !144

._crit_edge40:                                    ; preds = %55, %1
  %59 = getelementptr inbounds nuw i8, ptr %4, i64 24
  call void @av_freep(ptr noundef nonnull %59) #15
  %60 = getelementptr inbounds nuw i8, ptr %4, i64 4752
  %61 = load ptr, ptr %60, align 8, !tbaa !145
  %.not = icmp eq ptr %61, null
  br i1 %.not, label %63, label %62

62:                                               ; preds = %._crit_edge40
  call void @avformat_close_input(ptr noundef nonnull %60) #15
  br label %63

63:                                               ; preds = %62, %._crit_edge40
  %64 = getelementptr inbounds nuw i8, ptr %4, i64 8864
  %65 = load ptr, ptr %64, align 8, !tbaa !78
  %.not25 = icmp eq ptr %65, null
  br i1 %.not25, label %67, label %66

66:                                               ; preds = %63
  call void @avpriv_mpegts_parse_close(ptr noundef nonnull %65) #15
  br label %67

67:                                               ; preds = %66, %63
  %68 = getelementptr inbounds nuw i8, ptr %4, i64 8920
  call void @av_freep(ptr noundef nonnull %68) #15
  %69 = getelementptr inbounds nuw i8, ptr %4, i64 8896
  call void @av_freep(ptr noundef nonnull %69) #15
  call void @llvm.lifetime.end.p0(i64 8, ptr nonnull %2) #15
  ret void
}